; Function Attrs: mustprogress uwtable
define void @_ZN32pxrInternal_v0_24__pxrReserved__16ArchGetDemangledB5cxx11EPKc(ptr dead_on_unwind noalias writable sret(%"class.std::__cxx11::basic_string") align 8 %0, ptr noundef %1) local_unnamed_addr #0 personality ptr @__gxx_personality_v0 {
  %3 = alloca [35 x i8], align 16
  %4 = alloca %"class.std::allocator", align 1
  %.not = icmp eq ptr %1, null
  br i1 %.not, label %19, label %5

5:                                                ; preds = %2
  call void @_ZNSaIcEC1Ev(ptr noundef nonnull align 1 dereferenceable(1) %4) #14
  %6 = invoke noundef ptr @_ZNSt7__cxx1112basic_stringIcSt11char_traitsIcESaIcEE13_M_local_dataEv(ptr noundef nonnull align 8 dereferenceable(32) %0)
          to label %.noexc unwind label %16

.noexc:                                           ; preds = %5
  invoke void @_ZNSt7__cxx1112basic_stringIcSt11char_traitsIcESaIcEE12_Alloc_hiderC1EPcRKS3_(ptr noundef nonnull align 8 dereferenceable(32) %0, ptr noundef %6, ptr noundef nonnull align 1 dereferenceable(1) %4)
          to label %.noexc10 unwind label %16

7:                                                ; preds = %.noexc10
  %8 = landingpad { ptr, i32 }
          cleanup
  call void @_ZNSaIcED2Ev(ptr noundef nonnull align 8 dereferenceable(32) %0) #14
  br label %.body

.noexc10:                                         ; preds = %.noexc
  %9 = call noundef i64 @strlen(ptr noundef nonnull dereferenceable(1) %1) #14
  %10 = getelementptr inbounds i8, ptr %1, i64 %9
  invoke void @_ZNSt7__cxx1112basic_stringIcSt11char_traitsIcESaIcEE12_M_constructIPKcEEvT_S8_St20forward_iterator_tag(ptr noundef nonnull align 8 dereferenceable(32) %0, ptr noundef nonnull %1, ptr noundef nonnull %10)
          to label %_ZNSt7__cxx1112basic_stringIcSt11char_traitsIcESaIcEEC2IS3_EEPKcRKS3_.exit unwind label %7

_ZNSt7__cxx1112basic_stringIcSt11char_traitsIcESaIcEEC2IS3_EEPKcRKS3_.exit: ; preds = %.noexc10
  call void @_ZNSaIcED1Ev(ptr noundef nonnull align 1 dereferenceable(1) %4) #14
  %11 = invoke fastcc noundef zeroext i1 @_ZN32pxrInternal_v0_24__pxrReserved__L15_DemangleNewRawEPNSt7__cxx1112basic_stringIcSt11char_traitsIcESaIcEEE(ptr noundef nonnull %0)
          to label %.noexc11 unwind label %.loopexit.split-lp

.noexc11:                                         ; preds = %_ZNSt7__cxx1112basic_stringIcSt11char_traitsIcESaIcEEC2IS3_EEPKcRKS3_.exit
  br i1 %11, label %12, label %_ZN32pxrInternal_v0_24__pxrReserved__12ArchDemangleEPNSt7__cxx1112basic_stringIcSt11char_traitsIcESaIcEEE.exit.thread

12:                                               ; preds = %.noexc11
  invoke fastcc void @_ZN32pxrInternal_v0_24__pxrReserved__L17_FixupStringNamesEPNSt7__cxx1112basic_stringIcSt11char_traitsIcESaIcEEE(ptr noundef nonnull %0)
          to label %.noexc12 unwind label %.loopexit.split-lp

.noexc12:                                         ; preds = %12
  call void @llvm.lifetime.start.p0(i64 35, ptr nonnull %3)
  call void @llvm.memcpy.p0.p0.i64(ptr noundef nonnull align 16 dereferenceable(35) %3, ptr noundef nonnull align 16 dereferenceable(35) @__const._ZN32pxrInternal_v0_24__pxrReserved__L26_StripPxrInternalNamespaceEPNSt7__cxx1112basic_stringIcSt11char_traitsIcESaIcEEE.nsQualifier, i64 35, i1 false)
  %13 = call noundef i64 @_ZNKSt7__cxx1112basic_stringIcSt11char_traitsIcESaIcEE4findEPKcm(ptr noundef nonnull align 8 dereferenceable(32) %0, ptr noundef nonnull %3, i64 noundef 0) #14
  %.not4.i.i = icmp eq i64 %13, -1
  br i1 %.not4.i.i, label %_ZN32pxrInternal_v0_24__pxrReserved__12ArchDemangleEPNSt7__cxx1112basic_stringIcSt11char_traitsIcESaIcEEE.exit.thread14, label %.lr.ph.i.i

_ZN32pxrInternal_v0_24__pxrReserved__12ArchDemangleEPNSt7__cxx1112basic_stringIcSt11char_traitsIcESaIcEEE.exit.thread14: ; preds = %.noexc12
  call void @llvm.lifetime.end.p0(i64 35, ptr nonnull %3)
  br label %.thread

.lr.ph.i.i:                                       ; preds = %.noexc12, %.noexc13
  %.05.i.i = phi i64 [ %15, %.noexc13 ], [ %13, %.noexc12 ]
  %14 = invoke noundef nonnull align 8 dereferenceable(32) ptr @_ZNSt7__cxx1112basic_stringIcSt11char_traitsIcESaIcEE5eraseEmm(ptr noundef nonnull align 8 dereferenceable(32) %0, i64 noundef %.05.i.i, i64 noundef 34)
          to label %.noexc13 unwind label %.loopexit

.noexc13:                                         ; preds = %.lr.ph.i.i
  %15 = call noundef i64 @_ZNKSt7__cxx1112basic_stringIcSt11char_traitsIcESaIcEE4findEPKcm(ptr noundef nonnull align 8 dereferenceable(32) %0, ptr noundef nonnull %3, i64 noundef 0) #14
  %.not.i.i = icmp eq i64 %15, -1
  br i1 %.not.i.i, label %_ZN32pxrInternal_v0_24__pxrReserved__12ArchDemangleEPNSt7__cxx1112basic_stringIcSt11char_traitsIcESaIcEEE.exit, label %.lr.ph.i.i, !llvm.loop !4

16:                                               ; preds = %.noexc, %5
  %17 = landingpad { ptr, i32 }
          cleanup
  br label %.body

.body:                                            ; preds = %7, %16
  %eh.lpad-body = phi { ptr, i32 } [ %17, %16 ], [ %8, %7 ]
  call void @_ZNSaIcED1Ev(ptr noundef nonnull align 1 dereferenceable(1) %4) #14
  br label %20

.loopexit:                                        ; preds = %.lr.ph.i.i
  %lpad.loopexit = landingpad { ptr, i32 }
          cleanup
  br label %18

.loopexit.split-lp:                               ; preds = %_ZNSt7__cxx1112basic_stringIcSt11char_traitsIcESaIcEEC2IS3_EEPKcRKS3_.exit, %12
  %lpad.loopexit.split-lp = landingpad { ptr, i32 }
          cleanup
  br label %18

18:                                               ; preds = %.loopexit.split-lp, %.loopexit
  %lpad.phi = phi { ptr, i32 } [ %lpad.loopexit, %.loopexit ], [ %lpad.loopexit.split-lp, %.loopexit.split-lp ]
  call void @_ZNSt7__cxx1112basic_stringIcSt11char_traitsIcESaIcEED1Ev(ptr noundef nonnull align 8 dereferenceable(32) %0) #14
  br label %20

_ZN32pxrInternal_v0_24__pxrReserved__12ArchDemangleEPNSt7__cxx1112basic_stringIcSt11char_traitsIcESaIcEEE.exit: ; preds = %.noexc13
  call void @llvm.lifetime.end.p0(i64 35, ptr nonnull %3)
  br label %.thread

_ZN32pxrInternal_v0_24__pxrReserved__12ArchDemangleEPNSt7__cxx1112basic_stringIcSt11char_traitsIcESaIcEEE.exit.thread: ; preds = %.noexc11
  call void @_ZNSt7__cxx1112basic_stringIcSt11char_traitsIcESaIcEED1Ev(ptr noundef nonnull align 8 dereferenceable(32) %0) #14
  br label %19

19:                                               ; preds = %_ZN32pxrInternal_v0_24__pxrReserved__12ArchDemangleEPNSt7__cxx1112basic_stringIcSt11char_traitsIcESaIcEEE.exit.thread, %2
  call void @_ZNSt7__cxx1112basic_stringIcSt11char_traitsIcESaIcEEC1Ev(ptr noundef nonnull align 8 dereferenceable(32) %0) #14
  br label %.thread

.thread:                                          ; preds = %_ZN32pxrInternal_v0_24__pxrReserved__12ArchDemangleEPNSt7__cxx1112basic_stringIcSt11char_traitsIcESaIcEEE.exit, %_ZN32pxrInternal_v0_24__pxrReserved__12ArchDemangleEPNSt7__cxx1112basic_stringIcSt11char_traitsIcESaIcEEE.exit.thread14, %19
  ret void

20:                                               ; preds = %18, %.body
  %.pn = phi { ptr, i32 } [ %lpad.phi, %18 ], [ %eh.lpad-body, %.body ]
  resume { ptr, i32 } %.pn
}